target datalayout = "e-m:e-p270:32:32-p271:32:32-p272:64:64-i64:64-i128:128-f80:128-n8:16:32:64-S128"
target triple = "x86_64-pc-linux-gnu"

%struct.manifest_file = type { i32, ptr, i64, i32, i32, ptr }
%struct.JsonManifestParseContext = type { ptr, ptr, ptr, ptr, ptr, ptr }
%struct.manifest_data = type { i64, ptr, ptr, ptr }

@.str.11 = private unnamed_addr constant [45 x i8] c"duplicate path name in backup manifest: \22%s\22\00", align 1

; Function Attrs: nounwind uwtable
define dso_local ptr @manifest_files_insert(ptr noundef %0, ptr noundef %1, ptr noundef %2) #0 {
  %4 = alloca ptr, align 8
  %5 = alloca ptr, align 8
  %6 = alloca ptr, align 8
  %7 = alloca i32, align 4
  store ptr %0, ptr %4, align 8
  store ptr %1, ptr %5, align 8
  store ptr %2, ptr %6, align 8
  call void @llvm.lifetime.start.p0(i64 4, ptr %7) #14
  %8 = load ptr, ptr %5, align 8
  %9 = call i32 @hash_string(ptr noundef %8)
  store i32 %9, ptr %7, align 4
  %10 = load ptr, ptr %4, align 8
  %11 = load ptr, ptr %5, align 8
  %12 = load i32, ptr %7, align 4
  %13 = load ptr, ptr %6, align 8
  %14 = call ptr @manifest_files_insert_hash_internal(ptr noundef %10, ptr noundef %11, i32 noundef %12, ptr noundef %13)
  call void @llvm.lifetime.end.p0(i64 4, ptr %7) #14
  ret ptr %14
}

; Function Attrs: nounwind uwtable
define internal void @combinebackup_per_file_cb(ptr noundef %0, ptr noundef %1, i64 noundef %2, i32 noundef %3, i32 noundef %4, ptr noundef %5) #0 {
  %7 = alloca ptr, align 8
  %8 = alloca ptr, align 8
  %9 = alloca i64, align 8
  %10 = alloca i32, align 4
  %11 = alloca i32, align 4
  %12 = alloca ptr, align 8
  %13 = alloca ptr, align 8
  %14 = alloca ptr, align 8
  %15 = alloca i8, align 1
  store ptr %0, ptr %7, align 8
  store ptr %1, ptr %8, align 8
  store i64 %2, ptr %9, align 8
  store i32 %3, ptr %10, align 4
  store i32 %4, ptr %11, align 4
  store ptr %5, ptr %12, align 8
  call void @llvm.lifetime.start.p0(i64 8, ptr %13) #14
  %16 = load ptr, ptr %7, align 8
  %17 = getelementptr inbounds nuw %struct.JsonManifestParseContext, ptr %16, i32 0, i32 0
  %18 = load ptr, ptr %17, align 8
  store ptr %18, ptr %13, align 8
  call void @llvm.lifetime.start.p0(i64 8, ptr %14) #14
  call void @llvm.lifetime.start.p0(i64 1, ptr %15) #14
  %19 = load ptr, ptr %13, align 8
  %20 = getelementptr inbounds nuw %struct.manifest_data, ptr %19, i32 0, i32 1
  %21 = load ptr, ptr %20, align 8
  %22 = load ptr, ptr %8, align 8
  %23 = call ptr @manifest_files_insert(ptr noundef %21, ptr noundef %22, ptr noundef %15)
  store ptr %23, ptr %14, align 8
  %24 = load i8, ptr %15, align 1, !range !9, !noundef !10
  %25 = trunc i8 %24 to i1
  br i1 %25, label %26, label %31

26:                                               ; preds = %6
  br label %27

27:                                               ; preds = %26
  %28 = load ptr, ptr %8, align 8
  call void (i32, i32, ptr, ...) @pg_log_generic(i32 noundef 4, i32 noundef 0, ptr noundef @.str.11, ptr noundef %28)
  call void @exit(i32 noundef 1) #15
  unreachable

29:                                               ; No predecessors!
  br label %30

30:                                               ; preds = %29
  br label %31

31:                                               ; preds = %30, %6
  %32 = load i64, ptr %9, align 8
  %33 = load ptr, ptr %14, align 8
  %34 = getelementptr inbounds nuw %struct.manifest_file, ptr %33, i32 0, i32 2
  store i64 %32, ptr %34, align 8
  %35 = load i32, ptr %10, align 4
  %36 = load ptr, ptr %14, align 8
  %37 = getelementptr inbounds nuw %struct.manifest_file, ptr %36, i32 0, i32 3
  store i32 %35, ptr %37, align 8
  %38 = load i32, ptr %11, align 4
  %39 = load ptr, ptr %14, align 8
  %40 = getelementptr inbounds nuw %struct.manifest_file, ptr %39, i32 0, i32 4
  store i32 %38, ptr %40, align 4
  %41 = load ptr, ptr %12, align 8
  %42 = load ptr, ptr %14, align 8
  %43 = getelementptr inbounds nuw %struct.manifest_file, ptr %42, i32 0, i32 5
  store ptr %41, ptr %43, align 8
  call void @llvm.lifetime.end.p0(i64 1, ptr %15) #14
  call void @llvm.lifetime.end.p0(i64 8, ptr %14) #14
  call void @llvm.lifetime.end.p0(i64 8, ptr %13) #14
  ret void
}