; Function Attrs: nounwind uwtable
define internal void @combinebackup_per_file_cb(ptr noundef readonly captures(none) %0, ptr noundef %1, i64 noundef %2, i32 noundef %3, i32 noundef %4, ptr noundef %5) #0 {
  %7 = alloca i8, align 1
  %8 = load ptr, ptr %0, align 8
  call void @llvm.lifetime.start.p0(i64 1, ptr nonnull %7) #22
  %9 = getelementptr inbounds nuw i8, ptr %8, i64 8
  %10 = load ptr, ptr %9, align 8
  %11 = tail call fastcc i32 @hash_string(ptr noundef %1)
  %12 = call fastcc noundef ptr @manifest_files_insert_hash_internal(ptr noundef %10, ptr noundef %1, i32 noundef %11, ptr noundef nonnull %7)
  %13 = load i8, ptr %7, align 1, !range !17, !noundef !18
  %14 = trunc nuw i8 %13 to i1
  br i1 %14, label %15, label %16

15:                                               ; preds = %6
  tail call void (i32, i32, ptr, ...) @pg_log_generic(i32 noundef 4, i32 noundef 0, ptr noundef nonnull @.str.11, ptr noundef %1) #22
  tail call void @exit(i32 noundef 1) #23
  unreachable

16:                                               ; preds = %6
  %17 = getelementptr inbounds nuw i8, ptr %12, i64 16
  store i64 %2, ptr %17, align 8
  %18 = getelementptr inbounds nuw i8, ptr %12, i64 24
  store i32 %3, ptr %18, align 8
  %19 = getelementptr inbounds nuw i8, ptr %12, i64 28
  store i32 %4, ptr %19, align 4
  %20 = getelementptr inbounds nuw i8, ptr %12, i64 32
  store ptr %5, ptr %20, align 8
  call void @llvm.lifetime.end.p0(i64 1, ptr nonnull %7) #22
  ret void
}